target datalayout = "e-m:e-p270:32:32-p271:32:32-p272:64:64-i64:64-i128:128-f80:128-n8:16:32:64-S128"
target triple = "x86_64-pc-linux-gnu"

; Function Attrs: nounwind uwtable
define internal i32 @dcmpid(ptr noundef %0, ptr noundef %1) #0 {
  %3 = alloca i32, align 4
  %4 = alloca ptr, align 8
  %5 = alloca ptr, align 8
  %6 = alloca ptr, align 8
  %7 = alloca ptr, align 8
  %8 = alloca i32, align 4
  store ptr %0, ptr %4, align 8, !tbaa !10
  store ptr %1, ptr %5, align 8, !tbaa !10
  call void @llvm.lifetime.start.p0(i64 8, ptr %6) #12
  %9 = load ptr, ptr %4, align 8, !tbaa !10
  store ptr %9, ptr %6, align 8, !tbaa !164
  call void @llvm.lifetime.start.p0(i64 8, ptr %7) #12
  %10 = load ptr, ptr %5, align 8, !tbaa !10
  store ptr %10, ptr %7, align 8, !tbaa !164
  %11 = load ptr, ptr %6, align 8, !tbaa !164
  %12 = load double, ptr %11, align 8, !tbaa !85
  %13 = load ptr, ptr %7, align 8, !tbaa !164
  %14 = load double, ptr %13, align 8, !tbaa !85
  %15 = fcmp ogt double %12, %14
  br i1 %15, label %16, label %17

16:                                               ; preds = %2
  store i32 1, ptr %3, align 4
  store i32 1, ptr %8, align 4
  br label %25

17:                                               ; preds = %2
  %18 = load ptr, ptr %6, align 8, !tbaa !164
  %19 = load double, ptr %18, align 8, !tbaa !85
  %20 = load ptr, ptr %7, align 8, !tbaa !164
  %21 = load double, ptr %20, align 8, !tbaa !85
  %22 = fcmp olt double %19, %21
  br i1 %22, label %23, label %24

23:                                               ; preds = %17
  store i32 -1, ptr %3, align 4
  store i32 1, ptr %8, align 4
  br label %25

24:                                               ; preds = %17
  store i32 0, ptr %3, align 4
  store i32 1, ptr %8, align 4
  br label %25

25:                                               ; preds = %24, %23, %16
  call void @llvm.lifetime.end.p0(i64 8, ptr %7) #12
  call void @llvm.lifetime.end.p0(i64 8, ptr %6) #12
  %26 = load i32, ptr %3, align 4
  ret i32 %26
}