; Function Attrs: mustprogress nofree norecurse nosync nounwind willreturn memory(argmem: read) uwtable
define internal range(i32 -1, 2) i32 @dcmpid(ptr noundef readonly captures(none) %0, ptr noundef readonly captures(none) %1) #3 {
  %3 = load double, ptr %0, align 8, !tbaa !46
  %4 = load double, ptr %1, align 8, !tbaa !46
  %5 = fcmp ogt double %3, %4
  %6 = fcmp olt double %3, %4
  %. = sext i1 %6 to i32
  %.0 = select i1 %5, i32 1, i32 %.
  ret i32 %.0
}